Certificate:
    Data:
        Version: 3 (0x2)
        Serial Number:
            35:24:6f:f4:25:9c:16:c4:84:59:59:6f:1d:22:fe:70
        Signature Algorithm: sha256WithRSAEncryption
        Issuer: C=BR, ST=RJ, L=Rio de Janeiro, O=The Shires Co, OU=Openvpn Infra, CN=theshiresco.com/emailAddress=rlivre@theshiresco.com
        Validity
            Not Before: Aug 23 17:23:33 2019 GMT
            Not After : Aug 21 17:23:33 2024 GMT
        Subject: C=BR, ST=RJ, L=Rio de Janeiro, O=The Shires Co, OU=Openvpn Infra, CN=lDuda.icatu.rede/emailAddress=rlivre@theshiresco.com
        Subject Public Key Info:
            Public Key Algorithm: rsaEncryption
                RSA Public-Key: (4096 bit)
                Modulus:
                    00:c0:ef:89:7f:4e:53:fb:75:2c:bf:c8:d3:fc:69:
                    f0:57:4a:90:0a:cb:f1:ba:38:86:64:64:87:bd:72:
                    7f:71:1b:5c:e3:8b:fa:bd:c0:f5:10:87:43:86:9f:
                    4a:62:8d:33:01:e0:b6:70:90:27:5c:5a:22:9e:45:
                    e7:81:20:61:da:0a:fa:93:d6:fd:e4:51:8d:87:28:
                    53:00:54:aa:bc:3a:69:ee:02:8b:14:d2:e2:cf:58:
                    97:15:c4:0f:6f:11:97:df:1f:1d:bc:61:a2:82:63:
                    4c:88:9e:8a:38:c8:39:d1:aa:4d:a4:c0:71:95:a8:
                    fd:35:f8:79:62:c0:20:10:96:c8:99:4e:81:73:6e:
                    00:65:5c:eb:51:88:56:ed:83:1b:c3:50:76:ab:28:
                    85:bc:fd:56:40:94:57:35:3e:13:cc:d5:7e:ac:fd:
                    c6:a0:2f:6f:0c:a1:71:da:51:21:f0:73:20:5b:cc:
                    c1:23:48:e2:d2:eb:48:81:80:76:4d:b2:4c:77:b7:
                    e5:19:2a:80:3f:a5:5d:7f:c1:a5:79:f5:5e:a5:9d:
                    9b:ef:70:a6:40:87:53:28:47:e5:6f:5c:f1:96:eb:
                    2f:d6:25:e8:b4:19:50:ae:eb:7e:b9:65:46:b9:27:
                    87:01:d6:48:30:68:02:4b:c6:6c:26:8e:a6:62:00:
                    e9:42:dc:60:fc:12:4e:ab:3f:e3:5b:cf:57:bc:9c:
                    dc:a0:de:42:2a:0e:3f:af:d8:52:4a:e2:f4:66:98:
                    2b:3f:c2:60:ee:02:70:d9:48:6d:da:dc:71:92:cf:
                    b1:1b:c1:b5:87:48:ed:64:70:23:5d:9a:0f:c2:f5:
                    b5:8e:fe:e2:49:04:94:4c:f1:46:cc:64:7d:5c:a2:
                    ac:84:2f:e8:00:8f:9e:6e:fa:3a:37:67:dc:68:2b:
                    58:74:46:94:7d:79:56:91:ea:75:65:0f:3a:f4:84:
                    d4:8a:05:36:eb:fc:06:43:a5:b1:40:a5:1d:cb:dd:
                    46:58:ae:52:a1:a8:d4:9b:79:b9:23:27:8b:e2:b7:
                    0e:02:c1:78:a8:41:e9:02:28:7b:87:bf:6d:eb:1e:
                    52:d1:11:c5:87:e5:94:4a:c9:12:a8:81:98:f7:47:
                    1f:b2:81:6b:9a:9b:6f:5c:c9:bb:5b:57:f2:ab:fd:
                    f7:d9:22:99:7d:68:a1:07:07:c8:b4:ef:00:4c:2b:
                    38:5a:f5:b3:10:4d:e8:e8:16:c0:95:7c:8d:fe:59:
                    6c:80:ed:9b:d9:8d:6f:6c:c5:96:7d:a2:5c:ca:17:
                    97:32:cd:f0:65:43:b5:db:26:60:0d:e0:f6:e6:71:
                    2c:8f:8e:25:70:b2:ad:1f:fd:e5:01:ad:5e:06:bf:
                    e6:ff:7d
                Exponent: 65537 (0x10001)
        X509v3 extensions:
            X509v3 Basic Constraints: 
                CA:FALSE
            X509v3 Subject Key Identifier: 
                51:C1:BF:7A:99:01:2E:EA:BE:5C:0B:E1:BD:38:7E:ED:C7:34:05:57
            X509v3 Authority Key Identifier: 
                keyid:B6:AC:A7:17:89:B3:75:20:4E:DF:93:EA:31:DC:07:2F:B4:E7:CC:4C
                DirName:/C=BR/ST=RJ/L=Rio de Janeiro/O=The Shires Co/OU=Openvpn Infra/CN=theshiresco.com/emailAddress=rlivre@theshiresco.com
                serial:69:BF:33:E6:CD:86:29:1E:5F:F8:F8:CF:21:91:93:CE:00:F1:84:76

            X509v3 Extended Key Usage: 
                TLS Web Client Authentication
            X509v3 Key Usage: 
                Digital Signature
    Signature Algorithm: sha256WithRSAEncryption
         5e:ec:08:ee:8f:25:21:3a:23:db:24:dd:33:34:07:a2:15:1c:
         c9:53:fb:0c:f0:90:95:c7:47:f4:f9:62:1c:50:c2:19:2b:57:
         1d:4c:87:63:15:87:af:c8:8f:27:70:6e:40:b4:f5:39:2b:05:
         54:87:83:d4:14:9f:c2:bb:4b:d6:91:09:c8:f8:9b:ef:85:31:
         96:11:aa:1a:af:89:4d:12:dd:8a:67:e5:af:92:ff:1e:cf:39:
         bf:e9:19:6d:70:69:59:3a:3a:60:b6:e7:af:c1:06:f0:a2:06:
         59:66:29:9f:3c:6e:e5:c1:87:73:3a:25:20:73:4b:fa:68:a6:
         7c:11:72:9d:b0:64:ac:00:a8:5c:9a:e7:56:4e:e7:91:c9:bd:
         36:2f:94:b9:31:33:0a:a0:af:32:df:44:8b:c8:51:3d:f9:3b:
         01:aa:02:98:49:98:dd:f4:ce:26:b1:7a:5b:b8:54:37:b6:1c:
         b4:ff:54:df:0d:cd:59:0b:89:1d:f3:5e:30:12:5a:73:52:0c:
         a5:ec:9e:8f:9c:e2:b1:de:b3:30:00:91:3c:0a:99:30:54:f5:
         75:09:e1:ee:7e:aa:65:32:a4:c6:8c:e2:25:f8:ec:5f:d1:4a:
         2a:b5:57:ce:aa:8a:1b:38:51:ef:d7:b2:cc:09:bd:3e:e3:21:
         9c:f8:bf:3b:c6:d0:a5:2a:c9:c7:78:d6:dd:01:10:35:ec:05:
         2d:fa:8d:a8:99:4a:d7:23:ab:33:59:d9:56:de:89:cc:60:e8:
         1b:29:ed:c3:8e:ed:fe:04:f7:73:14:52:01:d2:6d:f8:c6:df:
         51:5c:2a:b0:ee:a7:39:b7:43:56:52:24:da:89:d9:21:ee:75:
         72:e5:ef:08:5d:70:a3:af:49:53:f5:da:81:df:b4:1b:9a:51:
         a1:1f:7c:ca:c3:f9:27:2e:2c:d4:d3:94:57:e6:6f:79:0d:3d:
         8d:22:ba:34:e4:01:4c:66:7e:0f:7a:3b:01:a8:24:6a:6e:7d:
         1e:d9:99:33:17:49:f5:9a:37:20:10:82:7d:74:49:2a:4b:5c:
         9a:74:8b:05:4f:44:a9:06:44:15:f1:0c:3f:c6:d1:21:bd:49:
         8e:cb:ce:65:85:65:0b:3d:0c:f3:6b:e3:b3:eb:8c:4b:b2:27:
         5e:3c:a7:29:dc:76:62:e9:67:56:21:2c:66:7f:53:9b:bd:6e:
         6c:0f:3c:b7:d3:71:ff:7f:86:4c:6d:fc:76:d3:a9:6a:de:06:
         8e:f4:5f:40:ac:38:7b:1e:88:46:02:27:2f:59:73:35:17:16:
         61:46:70:dc:45:4d:06:b4:42:e8:7b:e1:7d:54:40:30:1a:65:
         40:21:f8:9f:45:9c:aa:57
-----BEGIN CERTIFICATE-----
MIIHDjCCBPagAwIBAgIQNSRv9CWcFsSEWVlvHSL+cDANBgkqhkiG9w0BAQsFADCB
pDELMAkGA1UEBhMCQlIxCzAJBgNVBAgMAlJKMRcwFQYDVQQHDA5SaW8gZGUgSmFu
ZWlybzEWMBQGA1UECgwNVGhlIFNoaXJlcyBDbzEWMBQGA1UECwwNT3BlbnZwbiBJ
bmZyYTEYMBYGA1UEAwwPdGhlc2hpcmVzY28uY29tMSUwIwYJKoZIhvcNAQkBFhZy
bGl2cmVAdGhlc2hpcmVzY28uY29tMB4XDTE5MDgyMzE3MjMzM1oXDTI0MDgyMTE3
MjMzM1owgaUxCzAJBgNVBAYTAkJSMQswCQYDVQQIDAJSSjEXMBUGA1UEBwwOUmlv
IGRlIEphbmVpcm8xFjAUBgNVBAoMDVRoZSBTaGlyZXMgQ28xFjAUBgNVBAsMDU9w
ZW52cG4gSW5mcmExGTAXBgNVBAMMEGxEdWRhLmljYXR1LnJlZGUxJTAjBgkqhkiG
9w0BCQEWFnJsaXZyZUB0aGVzaGlyZXNjby5jb20wggIiMA0GCSqGSIb3DQEBAQUA
A4ICDwAwggIKAoICAQDA74l/TlP7dSy/yNP8afBXSpAKy/G6OIZkZIe9cn9xG1zj
i/q9wPUQh0OGn0pijTMB4LZwkCdcWiKeReeBIGHaCvqT1v3kUY2HKFMAVKq8Omnu
AosU0uLPWJcVxA9vEZffHx28YaKCY0yInoo4yDnRqk2kwHGVqP01+HliwCAQlsiZ
ToFzbgBlXOtRiFbtgxvDUHarKIW8/VZAlFc1PhPM1X6s/cagL28MoXHaUSHwcyBb
zMEjSOLS60iBgHZNskx3t+UZKoA/pV1/waV59V6lnZvvcKZAh1MoR+VvXPGW6y/W
Jei0GVCu6365ZUa5J4cB1kgwaAJLxmwmjqZiAOlC3GD8Ek6rP+Nbz1e8nNyg3kIq
Dj+v2FJK4vRmmCs/wmDuAnDZSG3a3HGSz7EbwbWHSO1kcCNdmg/C9bWO/uJJBJRM
8UbMZH1coqyEL+gAj55u+jo3Z9xoK1h0RpR9eVaR6nVlDzr0hNSKBTbr/AZDpbFA
pR3L3UZYrlKhqNSbebkjJ4vitw4CwXioQekCKHuHv23rHlLREcWH5ZRKyRKogZj3
Rx+ygWuam29cybtbV/Kr/ffZIpl9aKEHB8i07wBMKzha9bMQTejoFsCVfI3+WWyA
7ZvZjW9sxZZ9olzKF5cyzfBlQ7XbJmAN4PbmcSyPjiVwsq0f/eUBrV4Gv+b/fQID
AQABo4IBNzCCATMwCQYDVR0TBAIwADAdBgNVHQ4EFgQUUcG/epkBLuq+XAvhvTh+
7cc0BVcwgeQGA1UdIwSB3DCB2YAUtqynF4mzdSBO35PqMdwHL7TnzEyhgaqkgacw
gaQxCzAJBgNVBAYTAkJSMQswCQYDVQQIDAJSSjEXMBUGA1UEBwwOUmlvIGRlIEph
bmVpcm8xFjAUBgNVBAoMDVRoZSBTaGlyZXMgQ28xFjAUBgNVBAsMDU9wZW52cG4g
SW5mcmExGDAWBgNVBAMMD3RoZXNoaXJlc2NvLmNvbTElMCMGCSqGSIb3DQEJARYW
cmxpdnJlQHRoZXNoaXJlc2NvLmNvbYIUab8z5s2GKR5f+PjPIZGTzgDxhHYwEwYD
VR0lBAwwCgYIKwYBBQUHAwIwCwYDVR0PBAQDAgeAMA0GCSqGSIb3DQEBCwUAA4IC
AQBe7AjujyUhOiPbJN0zNAeiFRzJU/sM8JCVx0f0+WIcUMIZK1cdTIdjFYevyI8n
cG5AtPU5KwVUh4PUFJ/Cu0vWkQnI+JvvhTGWEaoar4lNEt2KZ+Wvkv8ezzm/6Rlt
cGlZOjpgtuevwQbwogZZZimfPG7lwYdzOiUgc0v6aKZ8EXKdsGSsAKhcmudWTueR
yb02L5S5MTMKoK8y30SLyFE9+TsBqgKYSZjd9M4msXpbuFQ3thy0/1TfDc1ZC4kd
814wElpzUgyl7J6PnOKx3rMwAJE8CpkwVPV1CeHufqplMqTGjOIl+Oxf0UoqtVfO
qoobOFHv17LMCb0+4yGc+L87xtClKsnHeNbdARA17AUt+o2omUrXI6szWdlW3onM
YOgbKe3Dju3+BPdzFFIB0m34xt9RXCqw7qc5t0NWUiTaidkh7nVy5e8IXXCjr0lT
9dqB37QbmlGhH3zKw/knLizU05RX5m95DT2NIro05AFMZn4PejsBqCRqbn0e2Zkz
F0n1mjcgEIJ9dEkqS1yadIsFT0SpBkQV8Qw/xtEhvUmOy85lhWULPQzza+Oz64xL
sidePKcp3HZi6WdWISxmf1ObvW5sDzy303H/f4ZMbfx206lq3gaO9F9ArDh7HohG
AicvWXM1FxZhRnDcRU0GtELoe+F9VEAwGmVAIfifRZyqVw==
-----END CERTIFICATE-----
